target datalayout = "e-m:e-p270:32:32-p271:32:32-p272:64:64-i64:64-i128:128-f80:128-n8:16:32:64-S128"
target triple = "x86_64-pc-linux-gnu"

%class.rational = type { %class.mpq }
%class.mpq = type { %class.mpz, %class.mpz }
%class.mpz = type { i32, i8, ptr }
%"class.std::ios_base" = type { ptr, i64, i64, i32, i32, i32, ptr, %"struct.std::ios_base::_Words", [8 x %"struct.std::ios_base::_Words"], i32, ptr, %"class.std::locale" }
%"struct.std::ios_base::_Words" = type { ptr, i64 }
%"class.std::locale" = type { ptr }
%"class.nla::grobner" = type { %"struct.nla::common", %"class.dd::pdd_manager", %"class.dd::solver", ptr, %class.indexed_uint_set, i32, i32, i32, i8, %"class.std::unordered_map.35" }
%"struct.nla::common" = type { ptr, %"class.nla::nex_creator" }
%"class.nla::nex_creator" = type { %class.ptr_vector, %"class.std::unordered_map", %"class.std::unordered_map.2", %class.svector, %"class.nla::nex_creator::mul_factory" }
%class.ptr_vector = type { %class.vector }
%class.vector = type { ptr }
%"class.std::unordered_map" = type { %"class.std::_Hashtable" }
%"class.std::_Hashtable" = type { ptr, i64, %"struct.std::__detail::_Hash_node_base", i64, %"struct.std::__detail::_Prime_rehash_policy", ptr }
%"struct.std::__detail::_Hash_node_base" = type { ptr }
%"struct.std::__detail::_Prime_rehash_policy" = type { float, i64 }
%"class.std::unordered_map.2" = type { %"class.std::_Hashtable.3" }
%"class.std::_Hashtable.3" = type { ptr, i64, %"struct.std::__detail::_Hash_node_base", i64, %"struct.std::__detail::_Prime_rehash_policy", ptr }
%class.svector = type { %class.vector.16 }
%class.vector.16 = type { ptr }
%"class.nla::nex_creator::mul_factory" = type { ptr, %class.rational, %class.vector.17 }
%class.vector.17 = type { ptr }
%"class.dd::pdd_manager" = type { %class.svector.18, %class.vector.20, %class.ptr_hashtable, %class.hashtable, %class.hashtable.23, %class.map, %class.svector, ptr, %class.svector, %class.svector, %class.svector, %class.svector, %class.small_object_allocator, %class.svector, i32, %class.svector, %class.svector, %class.svector.29, i8, i8, i32, i32, %class.svector, %class.svector, %class.rational, %class.rational, i32, %class.rational, %class.svector, i32, %class.svector, %class.svector, %class.rational, %class.rational }
%class.svector.18 = type { %class.vector.19 }
%class.vector.19 = type { ptr }
%class.vector.20 = type { ptr }
%class.ptr_hashtable = type { %class.core_hashtable.base, [4 x i8] }
%class.core_hashtable.base = type <{ ptr, i32, i32, i32 }>
%class.hashtable = type { %class.core_hashtable.base.22, [4 x i8] }
%class.core_hashtable.base.22 = type <{ ptr, i32, i32, i32 }>
%class.hashtable.23 = type { %class.core_hashtable.base.25, [4 x i8] }
%class.core_hashtable.base.25 = type <{ ptr, i32, i32, i32 }>
%class.map = type { %class.table2map }
%class.table2map = type { %class.core_hashtable.27 }
%class.core_hashtable.27 = type <{ ptr, i32, i32, i32, [4 x i8] }>
%class.small_object_allocator = type { [32 x ptr], [32 x ptr], i64 }
%class.svector.29 = type { %class.vector.30 }
%class.vector.30 = type { ptr }
%"class.dd::solver" = type { ptr, ptr, ptr, %"class.dd::solver::stats", %"struct.dd::solver::config", %"class.std::function", %class.ptr_vector.32, %class.ptr_vector.32, %class.ptr_vector.32, %class.vector.34, %class.ptr_vector.32, ptr, i8, i32, %class.svector, %class.svector }
%"class.dd::solver::stats" = type <{ i32, [4 x i8], double, i32, i32, i32, [4 x i8] }>
%"struct.dd::solver::config" = type { i32, i32, i32, i32, i32, i32, i8, i32, i32, i32, i32 }
%"class.std::function" = type { %"class.std::_Function_base", ptr }
%"class.std::_Function_base" = type { %"union.std::_Any_data", ptr }
%"union.std::_Any_data" = type { %"union.std::_Nocopy_types" }
%"union.std::_Nocopy_types" = type { { i64, i64 } }
%class.vector.34 = type { ptr }
%class.ptr_vector.32 = type { %class.vector.33 }
%class.vector.33 = type { ptr }
%class.indexed_uint_set = type { i32, %class.svector, %class.svector }
%"class.std::unordered_map.35" = type { %"class.std::_Hashtable.36" }
%"class.std::_Hashtable.36" = type { ptr, i64, %"struct.std::__detail::_Hash_node_base", i64, %"struct.std::__detail::_Prime_rehash_policy", ptr }
%"struct.lp::lp_settings" = type <{ %"class.lp::lp_settings::default_lp_resource_limit", ptr, ptr, ptr, %"struct.lp::statistics", %class.random_gen, i32, i32, i32, i8, [3 x i8], i32, i8, [3 x i8], i32, double, i8, i8, [2 x i8], i32, i32, i8, [3 x i8], i32, i8, [3 x i8], i32, i8, [3 x i8], i32, i32, i32, i32, i32, i8, [3 x i8], i32, i32, i32, i8, i8, i8, i8, i8, i8, [2 x i8], i32, i32, [4 x i8] }>
%"class.lp::lp_settings::default_lp_resource_limit" = type { %"class.lp::lp_resource_limit", ptr, %class.stopwatch }
%"class.lp::lp_resource_limit" = type { ptr }
%class.stopwatch = type <{ %"class.std::chrono::time_point", %"class.std::chrono::duration", i8, [7 x i8] }>
%"class.std::chrono::time_point" = type { %"class.std::chrono::duration" }
%"class.std::chrono::duration" = type { i64 }
%"struct.lp::statistics" = type { i32, i32, i32, i32, i32, i32, i32, i32, i32, i32, i32, i32, i32, i32, i32, i32, i32, i32, i32, i32, i32, i32, i32, i32, i32, i32, i32, i32, i32, i32, i32, i32, i32, i32, i32, i32, i32, i32, i32, i32, i32, i32, i32, %class.statistics }
%class.statistics = type { %class.svector.83, %class.svector.85 }
%class.svector.83 = type { %class.vector.84 }
%class.vector.84 = type { ptr }
%class.svector.85 = type { %class.vector.86 }
%class.vector.86 = type { ptr }
%class.random_gen = type { i32 }

@.str.4 = private unnamed_addr constant [18 x i8] c"grobner conflict\0A\00", align 1

; Function Attrs: inlinehint mustprogress nounwind uwtable
define linkonce_odr noundef i32 @_ZStorSt12_Ios_IostateS_(i32 noundef %0, i32 noundef %1) #8 comdat {
  %3 = alloca i32, align 4
  %4 = alloca i32, align 4
  store i32 %0, ptr %3, align 4, !tbaa !1172
  store i32 %1, ptr %4, align 4, !tbaa !1172
  %5 = load i32, ptr %3, align 4, !tbaa !1172
  %6 = load i32, ptr %4, align 4, !tbaa !1172
  %7 = or i32 %5, %6
  ret i32 %7
}

; Function Attrs: mustprogress nounwind uwtable
define available_externally noundef i32 @_ZNKSt9basic_iosIcSt11char_traitsIcEE7rdstateEv(ptr noundef nonnull align 8 dereferenceable(264) %0) #4 align 2 {
  %2 = alloca ptr, align 8
  store ptr %0, ptr %2, align 8, !tbaa !926
  %3 = load ptr, ptr %2, align 8
  %4 = getelementptr inbounds nuw %"class.std::ios_base", ptr %3, i32 0, i32 5
  %5 = load i32, ptr %4, align 8, !tbaa !1173
  ret i32 %5
}

; Function Attrs: mustprogress nounwind uwtable
define linkonce_odr hidden noundef i64 @_ZNSt11char_traitsIcE6lengthEPKc(ptr noundef %0) #4 comdat align 2 {
  %2 = alloca ptr, align 8
  store ptr %0, ptr %2, align 8, !tbaa !237
  %3 = load ptr, ptr %2, align 8, !tbaa !237
  %4 = call i64 @strlen(ptr noundef %3) #3
  ret i64 %4
}

; Function Attrs: mustprogress uwtable
define available_externally void @_ZNSt9basic_iosIcSt11char_traitsIcEE8setstateESt12_Ios_Iostate(ptr noundef nonnull align 8 dereferenceable(264) %0, i32 noundef %1) #6 align 2 {
  %3 = alloca ptr, align 8
  %4 = alloca i32, align 4
  store ptr %0, ptr %3, align 8, !tbaa !926
  store i32 %1, ptr %4, align 4, !tbaa !1172
  %5 = load ptr, ptr %3, align 8
  %6 = call noundef i32 @_ZNKSt9basic_iosIcSt11char_traitsIcEE7rdstateEv(ptr noundef nonnull align 8 dereferenceable(264) %5)
  %7 = load i32, ptr %4, align 4, !tbaa !1172
  %8 = call noundef i32 @_ZStorSt12_Ios_IostateS_(i32 noundef %6, i32 noundef %7)
  call void @_ZNSt9basic_iosIcSt11char_traitsIcEE5clearESt12_Ios_Iostate(ptr noundef nonnull align 8 dereferenceable(264) %5, i32 noundef %8)
  ret void
}

; Function Attrs: mustprogress nounwind uwtable
define linkonce_odr hidden noundef nonnull align 8 dereferenceable(4736) ptr @_ZN3nla6common1cEv(ptr noundef nonnull align 8 dereferenceable(184) %0) #4 comdat align 2 {
  %2 = alloca ptr, align 8
  store ptr %0, ptr %2, align 8, !tbaa !197
  %3 = load ptr, ptr %2, align 8
  %4 = getelementptr inbounds nuw %"struct.nla::common", ptr %3, i32 0, i32 0
  %5 = load ptr, ptr %4, align 8, !tbaa !20
  ret ptr %5
}

; Function Attrs: mustprogress nounwind uwtable
define linkonce_odr hidden noundef i32 @_ZNK6vectorIPN2dd6solver8equationELb0EjE4sizeEv(ptr noundef nonnull align 8 dereferenceable(8) %0) #4 comdat align 2 {
  %2 = alloca i32, align 4
  %3 = alloca ptr, align 8
  store ptr %0, ptr %3, align 8, !tbaa !249
  %4 = load ptr, ptr %3, align 8
  %5 = getelementptr inbounds nuw %class.vector.33, ptr %4, i32 0, i32 0
  %6 = load ptr, ptr %5, align 8, !tbaa !251
  %7 = icmp eq ptr %6, null
  br i1 %7, label %8, label %9

8:                                                ; preds = %1
  store i32 0, ptr %2, align 4
  br label %14

9:                                                ; preds = %1
  %10 = getelementptr inbounds nuw %class.vector.33, ptr %4, i32 0, i32 0
  %11 = load ptr, ptr %10, align 8, !tbaa !251
  %12 = getelementptr inbounds i32, ptr %11, i64 -1
  %13 = load i32, ptr %12, align 4, !tbaa !8
  store i32 %13, ptr %2, align 4
  br label %14

14:                                               ; preds = %9, %8
  %15 = load i32, ptr %2, align 4
  ret i32 %15
}

; Function Attrs: inlinehint mustprogress uwtable
define available_externally noundef nonnull align 8 dereferenceable(8) ptr @_ZStlsISt11char_traitsIcEERSt13basic_ostreamIcT_ES5_PKc(ptr noundef nonnull align 8 dereferenceable(8) %0, ptr noundef %1) #7 {
  %3 = alloca ptr, align 8
  %4 = alloca ptr, align 8
  store ptr %0, ptr %3, align 8, !tbaa !235
  store ptr %1, ptr %4, align 8, !tbaa !237
  %5 = load ptr, ptr %4, align 8, !tbaa !237
  %6 = icmp ne ptr %5, null
  br i1 %6, label %13, label %7

7:                                                ; preds = %2
  %8 = load ptr, ptr %3, align 8, !tbaa !235
  %9 = load ptr, ptr %8, align 8, !tbaa !238
  %10 = getelementptr i8, ptr %9, i64 -24
  %11 = load i64, ptr %10, align 8
  %12 = getelementptr inbounds i8, ptr %8, i64 %11
  call void @_ZNSt9basic_iosIcSt11char_traitsIcEE8setstateESt12_Ios_Iostate(ptr noundef nonnull align 8 dereferenceable(264) %12, i32 noundef 1)
  br label %19

13:                                               ; preds = %2
  %14 = load ptr, ptr %3, align 8, !tbaa !235
  %15 = load ptr, ptr %4, align 8, !tbaa !237
  %16 = load ptr, ptr %4, align 8, !tbaa !237
  %17 = call noundef i64 @_ZNSt11char_traitsIcE6lengthEPKc(ptr noundef %16)
  %18 = call noundef nonnull align 8 dereferenceable(8) ptr @_ZSt16__ostream_insertIcSt11char_traitsIcEERSt13basic_ostreamIT_T0_ES6_PKS3_l(ptr noundef nonnull align 8 dereferenceable(8) %14, ptr noundef %15, i64 noundef %17)
  br label %19

19:                                               ; preds = %13, %7
  %20 = load ptr, ptr %3, align 8, !tbaa !235
  ret ptr %20
}

; Function Attrs: mustprogress nounwind uwtable
define linkonce_odr hidden noundef nonnull align 8 dereferenceable(192) ptr @_ZN2lp11lp_settings5statsEv(ptr noundef nonnull align 8 dereferenceable(380) %0) #4 comdat align 2 {
  %2 = alloca ptr, align 8
  store ptr %0, ptr %2, align 8, !tbaa !217
  %3 = load ptr, ptr %2, align 8
  %4 = getelementptr inbounds nuw %"struct.lp::lp_settings", ptr %3, i32 0, i32 4
  ret ptr %4
}

; Function Attrs: mustprogress uwtable
define hidden noundef nonnull align 8 dereferenceable(380) ptr @_ZN3nla7grobner11lp_settingsEv(ptr noundef nonnull align 8 dereferenceable(1448) %0) #6 align 2 {
  %2 = alloca ptr, align 8
  store ptr %0, ptr %2, align 8, !tbaa !16
  %3 = load ptr, ptr %2, align 8
  %4 = call noundef nonnull align 8 dereferenceable(4736) ptr @_ZN3nla6common1cEv(ptr noundef nonnull align 8 dereferenceable(184) %3)
  %5 = call noundef nonnull align 8 dereferenceable(380) ptr @_ZN3nla4core11lp_settingsEv(ptr noundef nonnull align 8 dereferenceable(4736) %4)
  ret ptr %5
}

; Function Attrs: mustprogress nounwind uwtable
define linkonce_odr hidden noundef ptr @_ZNK6vectorIPN2dd6solver8equationELb0EjE3endEv(ptr noundef nonnull align 8 dereferenceable(8) %0) #4 comdat align 2 {
  %2 = alloca ptr, align 8
  store ptr %0, ptr %2, align 8, !tbaa !249
  %3 = load ptr, ptr %2, align 8
  %4 = getelementptr inbounds nuw %class.vector.33, ptr %3, i32 0, i32 0
  %5 = load ptr, ptr %4, align 8, !tbaa !251
  %6 = call noundef i32 @_ZNK6vectorIPN2dd6solver8equationELb0EjE4sizeEv(ptr noundef nonnull align 8 dereferenceable(8) %3)
  %7 = zext i32 %6 to i64
  %8 = getelementptr inbounds nuw ptr, ptr %5, i64 %7
  ret ptr %8
}

; Function Attrs: mustprogress nounwind uwtable
define linkonce_odr hidden noundef ptr @_ZNK6vectorIPN2dd6solver8equationELb0EjE5beginEv(ptr noundef nonnull align 8 dereferenceable(8) %0) #4 comdat align 2 {
  %2 = alloca ptr, align 8
  store ptr %0, ptr %2, align 8, !tbaa !249
  %3 = load ptr, ptr %2, align 8
  %4 = getelementptr inbounds nuw %class.vector.33, ptr %3, i32 0, i32 0
  %5 = load ptr, ptr %4, align 8, !tbaa !251
  ret ptr %5
}

; Function Attrs: mustprogress uwtable
define hidden noundef zeroext i1 @_ZN3nla7grobner14is_conflictingEv(ptr noundef nonnull align 8 dereferenceable(1448) %0) #6 align 2 {
  %2 = alloca i1, align 1
  %3 = alloca ptr, align 8
  %4 = alloca ptr, align 8
  %5 = alloca ptr, align 8
  %6 = alloca ptr, align 8
  %7 = alloca i32, align 4
  %8 = alloca ptr, align 8
  store ptr %0, ptr %3, align 8, !tbaa !16
  %9 = load ptr, ptr %3, align 8
  call void @llvm.lifetime.start.p0(i64 8, ptr %4) #3
  %10 = getelementptr inbounds nuw %"class.nla::grobner", ptr %9, i32 0, i32 2
  %11 = call noundef nonnull align 8 dereferenceable(8) ptr @_ZN2dd6solver9equationsEv(ptr noundef nonnull align 8 dereferenceable(208) %10)
  store ptr %11, ptr %4, align 8, !tbaa !228
  call void @llvm.lifetime.start.p0(i64 8, ptr %5) #3
  %12 = load ptr, ptr %4, align 8, !tbaa !228
  %13 = call noundef ptr @_ZNK6vectorIPN2dd6solver8equationELb0EjE5beginEv(ptr noundef nonnull align 8 dereferenceable(8) %12)
  store ptr %13, ptr %5, align 8, !tbaa !230
  call void @llvm.lifetime.start.p0(i64 8, ptr %6) #3
  %14 = load ptr, ptr %4, align 8, !tbaa !228
  %15 = call noundef ptr @_ZNK6vectorIPN2dd6solver8equationELb0EjE3endEv(ptr noundef nonnull align 8 dereferenceable(8) %14)
  store ptr %15, ptr %6, align 8, !tbaa !230
  br label %16

16:                                               ; preds = %48, %1
  %17 = load ptr, ptr %5, align 8, !tbaa !230
  %18 = load ptr, ptr %6, align 8, !tbaa !230
  %19 = icmp ne ptr %17, %18
  br i1 %19, label %21, label %20

20:                                               ; preds = %16
  store i32 2, ptr %7, align 4
  br label %51

21:                                               ; preds = %16
  call void @llvm.lifetime.start.p0(i64 8, ptr %8) #3
  %22 = load ptr, ptr %5, align 8, !tbaa !230
  %23 = load ptr, ptr %22, align 8, !tbaa !231
  store ptr %23, ptr %8, align 8, !tbaa !231
  %24 = load ptr, ptr %8, align 8, !tbaa !231
  %25 = call noundef zeroext i1 @_ZN3nla7grobner14is_conflictingERKN2dd6solver8equationE(ptr noundef nonnull align 8 dereferenceable(1448) %9, ptr noundef nonnull align 8 dereferenceable(32) %24)
  br i1 %25, label %26, label %44

26:                                               ; preds = %21
  %27 = call noundef nonnull align 8 dereferenceable(380) ptr @_ZN3nla7grobner11lp_settingsEv(ptr noundef nonnull align 8 dereferenceable(1448) %9)
  %28 = call noundef nonnull align 8 dereferenceable(192) ptr @_ZN2lp11lp_settings5statsEv(ptr noundef nonnull align 8 dereferenceable(380) %27)
  %29 = getelementptr inbounds nuw %"struct.lp::statistics", ptr %28, i32 0, i32 28
  %30 = load i32, ptr %29, align 8, !tbaa !232
  %31 = add i32 %30, 1
  store i32 %31, ptr %29, align 8, !tbaa !232
  %32 = call noundef i32 @_Z19get_verbosity_levelv()
  %33 = icmp uge i32 %32, 3
  br i1 %33, label %34, label %43

34:                                               ; preds = %26
  %35 = call noundef zeroext i1 @_Z11is_threadedv()
  br i1 %35, label %36, label %39

36:                                               ; preds = %34
  call void @_Z12verbose_lockv()
  %37 = call noundef nonnull align 8 dereferenceable(8) ptr @_Z14verbose_streamv()
  %38 = call noundef nonnull align 8 dereferenceable(8) ptr @_ZStlsISt11char_traitsIcEERSt13basic_ostreamIcT_ES5_PKc(ptr noundef nonnull align 8 dereferenceable(8) %37, ptr noundef @.str.4)
  call void @_Z14verbose_unlockv()
  br label %42

39:                                               ; preds = %34
  %40 = call noundef nonnull align 8 dereferenceable(8) ptr @_Z14verbose_streamv()
  %41 = call noundef nonnull align 8 dereferenceable(8) ptr @_ZStlsISt11char_traitsIcEERSt13basic_ostreamIcT_ES5_PKc(ptr noundef nonnull align 8 dereferenceable(8) %40, ptr noundef @.str.4)
  br label %42

42:                                               ; preds = %39, %36
  br label %43

43:                                               ; preds = %42, %26
  store i1 true, ptr %2, align 1
  store i32 1, ptr %7, align 4
  br label %45

44:                                               ; preds = %21
  store i32 0, ptr %7, align 4
  br label %45

45:                                               ; preds = %44, %43
  call void @llvm.lifetime.end.p0(i64 8, ptr %8) #3
  %46 = load i32, ptr %7, align 4
  switch i32 %46, label %51 [
    i32 0, label %47
  ]

47:                                               ; preds = %45
  br label %48

48:                                               ; preds = %47
  %49 = load ptr, ptr %5, align 8, !tbaa !230
  %50 = getelementptr inbounds nuw ptr, ptr %49, i32 1
  store ptr %50, ptr %5, align 8, !tbaa !230
  br label %16

51:                                               ; preds = %45, %20
  call void @llvm.lifetime.end.p0(i64 8, ptr %6) #3
  call void @llvm.lifetime.end.p0(i64 8, ptr %5) #3
  call void @llvm.lifetime.end.p0(i64 8, ptr %4) #3
  %52 = load i32, ptr %7, align 4
  switch i32 %52, label %56 [
    i32 2, label %53
    i32 1, label %54
  ]

53:                                               ; preds = %51
  store i1 false, ptr %2, align 1
  br label %54

54:                                               ; preds = %53, %51
  %55 = load i1, ptr %2, align 1
  ret i1 %55

56:                                               ; preds = %51
  unreachable
}