; Function Attrs: mustprogress uwtable
define hidden noundef zeroext i1 @_ZN3nla7grobner14is_conflictingEv(ptr noundef nonnull align 8 dereferenceable(1448) %0) local_unnamed_addr #4 align 2 {
  %2 = getelementptr inbounds nuw i8, ptr %0, i64 1136
  %3 = tail call noundef nonnull align 8 dereferenceable(8) ptr @_ZN2dd6solver9equationsEv(ptr noundef nonnull align 8 dereferenceable(208) %2)
  %4 = load ptr, ptr %3, align 8, !tbaa !210
  %5 = icmp eq ptr %4, null
  br i1 %5, label %.loopexit, label %_ZNK6vectorIPN2dd6solver8equationELb0EjE3endEv.exit

_ZNK6vectorIPN2dd6solver8equationELb0EjE3endEv.exit: ; preds = %1
  %6 = getelementptr inbounds i8, ptr %4, i64 -4
  %7 = load i32, ptr %6, align 4, !tbaa !184
  %8 = zext i32 %7 to i64
  %9 = getelementptr inbounds nuw ptr, ptr %4, i64 %8
  %.not15.not = icmp eq i32 %7, 0
  br i1 %.not15.not, label %.loopexit, label %.critedge

10:                                               ; preds = %.critedge
  %11 = getelementptr inbounds nuw i8, ptr %.01216, i64 8
  %.not.not = icmp eq ptr %11, %9
  br i1 %.not.not, label %.loopexit, label %.critedge

.critedge:                                        ; preds = %_ZNK6vectorIPN2dd6solver8equationELb0EjE3endEv.exit, %10
  %.01216 = phi ptr [ %11, %10 ], [ %4, %_ZNK6vectorIPN2dd6solver8equationELb0EjE3endEv.exit ]
  %12 = load ptr, ptr %.01216, align 8, !tbaa !211
  %13 = tail call noundef zeroext i1 @_ZN3nla7grobner14is_conflictingERKN2dd6solver8equationE(ptr noundef nonnull align 8 dereferenceable(1448) %0, ptr noundef nonnull align 8 dereferenceable(32) %12)
  br i1 %13, label %14, label %10

14:                                               ; preds = %.critedge
  %15 = load ptr, ptr %0, align 8, !tbaa !8
  %16 = tail call noundef nonnull align 8 dereferenceable(380) ptr @_ZN3nla4core11lp_settingsEv(ptr noundef nonnull align 8 dereferenceable(4736) %15)
  %17 = getelementptr inbounds nuw i8, ptr %16, i64 176
  %18 = load i32, ptr %17, align 8, !tbaa !221
  %19 = add i32 %18, 1
  store i32 %19, ptr %17, align 8, !tbaa !221
  %20 = tail call noundef i32 @_Z19get_verbosity_levelv()
  %21 = icmp ugt i32 %20, 2
  br i1 %21, label %22, label %.loopexit

22:                                               ; preds = %14
  %23 = tail call noundef zeroext i1 @_Z11is_threadedv()
  br i1 %23, label %24, label %27

24:                                               ; preds = %22
  tail call void @_Z12verbose_lockv()
  %25 = tail call noundef nonnull align 8 dereferenceable(8) ptr @_Z14verbose_streamv()
  %26 = tail call noundef nonnull align 8 dereferenceable(8) ptr @_ZSt16__ostream_insertIcSt11char_traitsIcEERSt13basic_ostreamIT_T0_ES6_PKS3_l(ptr noundef nonnull align 8 dereferenceable(8) %25, ptr noundef nonnull @.str.4, i64 noundef 17)
  tail call void @_Z14verbose_unlockv()
  br label %.loopexit

27:                                               ; preds = %22
  %28 = tail call noundef nonnull align 8 dereferenceable(8) ptr @_Z14verbose_streamv()
  %29 = tail call noundef nonnull align 8 dereferenceable(8) ptr @_ZSt16__ostream_insertIcSt11char_traitsIcEERSt13basic_ostreamIT_T0_ES6_PKS3_l(ptr noundef nonnull align 8 dereferenceable(8) %28, ptr noundef nonnull @.str.4, i64 noundef 17)
  br label %.loopexit

.loopexit:                                        ; preds = %10, %1, %_ZNK6vectorIPN2dd6solver8equationELb0EjE3endEv.exit, %24, %27, %14
  %.not14 = phi i1 [ true, %24 ], [ true, %27 ], [ true, %14 ], [ false, %_ZNK6vectorIPN2dd6solver8equationELb0EjE3endEv.exit ], [ false, %1 ], [ false, %10 ]
  ret i1 %.not14
}